	.file	"main.c"
# GNU C17 (Ubuntu 13.3.0-6ubuntu2~24.04.1) version 13.3.0 (x86_64-linux-gnu)
#	compiled by GNU C version 13.3.0, GMP version 6.3.0, MPFR version 4.2.1, MPC version 1.3.1, isl version isl-0.26-GMP

# GGC heuristics: --param ggc-min-expand=100 --param ggc-min-heapsize=131072
# options passed: -mtune=generic -march=x86-64 -g -O0 -fasynchronous-unwind-tables -fstack-protector-strong -fstack-clash-protection -fcf-protection
	.text
.Ltext0:
	.file 0 "/home/ubuntu/workspace/UbuntuEbd/as3/src" "main.c"
	.local	g1
	.comm	g1,4,4
	.globl	g2
	.section	.rodata
	.align 4
	.type	g2, @object
	.size	g2, 4
g2:
	.long	45
	.globl	g3
	.data
	.type	g3, @object
	.size	g3, 1
g3:
	.byte	12
	.globl	g4
	.bss
	.type	g4, @object
	.size	g4, 1
g4:
	.zero	1
	.text
	.globl	main
	.type	main, @function
main:
.LFB6:
	.file 1 "main.c"
	.loc 1 33 1
	.cfi_startproc
	endbr64	
	pushq	%rbp	#
	.cfi_def_cfa_offset 16
	.cfi_offset 6, -16
	movq	%rsp, %rbp	#,
	.cfi_def_cfa_register 6
	pushq	%rbx	#
	subq	$24, %rsp	#,
	.cfi_offset 3, -24
# main.c:36:   volatile int l3 = 12;
	.loc 1 36 16
	movl	$12, -28(%rbp)	#, l3
# main.c:38:   l2 = (int *) malloc( N * g2 * sizeof(char) );
	.loc 1 38 26
	movl	$45, %eax	#, g2.0_1
	movl	%eax, %edx	# g2.0_1, g2.1_2
	movl	%edx, %eax	# g2.1_2, tmp93
	sall	$2, %eax	#, tmp93
	addl	%edx, %eax	# g2.1_2, tmp93
	addl	%eax, %eax	# tmp94
# main.c:38:   l2 = (int *) malloc( N * g2 * sizeof(char) );
	.loc 1 38 16
	movl	%eax, %eax	# _3, _4
	movq	%rax, %rdi	# _4,
	call	malloc@PLT	#
	movq	%rax, -24(%rbp)	# tmp95, l2
# main.c:40:   if ( ! l2 )
	.loc 1 40 6
	cmpq	$0, -24(%rbp)	#, l2
	jne	.L2	#,
# main.c:42:     return -1;
	.loc 1 42 12
	movl	$-1, %eax	#, _9
	jmp	.L3	#
.L2:
# main.c:45:   for( l1 = 0; l1 < g2; l3++)
	.loc 1 45 11
	movl	$0, %ebx	#, l1
# main.c:45:   for( l1 = 0; l1 < g2; l3++)
	.loc 1 45 3
	jmp	.L4	#
.L5:
# main.c:47:      g1 = func(l2);
	.loc 1 47 11
	movq	-24(%rbp), %rax	# l2, tmp96
	movq	%rax, %rdi	# tmp96,
	call	func@PLT	#
# main.c:47:      g1 = func(l2);
	.loc 1 47 9 discriminator 1
	movl	%eax, g1(%rip)	# _5, g1
# main.c:45:   for( l1 = 0; l1 < g2; l3++)
	.loc 1 45 27 discriminator 3
	movl	-28(%rbp), %eax	# l3, l3.2_6
	addl	$1, %eax	#, _7
	movl	%eax, -28(%rbp)	# _7, l3
.L4:
# main.c:45:   for( l1 = 0; l1 < g2; l3++)
	.loc 1 45 19 discriminator 1
	movl	$45, %eax	#, g2.3_8
	cmpl	%eax, %ebx	# g2.3_8, l1
	jl	.L5	#,
# main.c:50:   return 0;
	.loc 1 50 10
	movl	$0, %eax	#, _9
.L3:
# main.c:51: }
	.loc 1 51 1
	movq	-8(%rbp), %rbx	#,
	leave	
	.cfi_def_cfa 7, 8
	ret	
	.cfi_endproc
.LFE6:
	.size	main, .-main
.Letext0:
	.file 2 "../include/misc.h"
	.file 3 "/usr/include/stdlib.h"
	.file 4 "/usr/lib/gcc/x86_64-linux-gnu/13/include/stddef.h"
	.section	.note.GNU-stack,"",@progbits
	.section	.note.gnu.property,"a"
	.align 8
	.long	1f - 0f
	.long	4f - 1f
	.long	5
0:
	.string	"GNU"
1:
	.align 8
	.long	0xc0000002
	.long	3f - 2f
2:
	.long	0x3
3:
	.align 8
4:
